target datalayout = "e-m:e-p270:32:32-p271:32:32-p272:64:64-i64:64-i128:128-f80:128-n8:16:32:64-S128"
target triple = "x86_64-pc-linux-gnu"

%class.TenuredGeneration = type { %class.Generation, %class.MemRegion, ptr, ptr, i64, i64, i64, i64, ptr, ptr, ptr, ptr }
%class.Generation = type { ptr, ptr, %class.MemRegion, %class.VirtualSpace, ptr }
%class.VirtualSpace = type { ptr, ptr, ptr, ptr, i8, i8, ptr, ptr, ptr, ptr, ptr, ptr, i64, i64, i64 }
%class.MemRegion = type { ptr, i64 }

@UsePerfData = external global i8, align 1

; Function Attrs: mustprogress nounwind uwtable
define hidden void @_ZN17TenuredGeneration15update_countersEv(ptr noundef nonnull align 8 dereferenceable(248) %0) unnamed_addr #1 align 2 {
  %2 = alloca ptr, align 8
  store ptr %0, ptr %2, align 8
  %3 = load ptr, ptr %2, align 8
  %4 = load i8, ptr @UsePerfData, align 1
  %5 = trunc i8 %4 to i1
  br i1 %5, label %6, label %14

6:                                                ; preds = %1
  %7 = getelementptr inbounds %class.TenuredGeneration, ptr %3, i32 0, i32 10
  %8 = load ptr, ptr %7, align 8
  call void @_ZN14CSpaceCounters10update_allEv(ptr noundef nonnull align 8 dereferenceable(48) %8)
  %9 = getelementptr inbounds %class.TenuredGeneration, ptr %3, i32 0, i32 9
  %10 = load ptr, ptr %9, align 8
  %11 = load ptr, ptr %10, align 8
  %12 = getelementptr inbounds ptr, ptr %11, i64 0
  %13 = load ptr, ptr %12, align 8
  call void %13(ptr noundef nonnull align 8 dereferenceable(32) %10)
  br label %14

14:                                               ; preds = %6, %1
  ret void
}