; Function Attrs: mustprogress nounwind uwtable
define hidden void @_ZN17TenuredGeneration15update_countersEv(ptr nocapture noundef nonnull readonly align 8 dereferenceable(248) %0) unnamed_addr #0 align 2 {
  %2 = load i8, ptr @UsePerfData, align 1
  %3 = trunc i8 %2 to i1
  br i1 %3, label %4, label %11

4:                                                ; preds = %1
  %5 = getelementptr inbounds i8, ptr %0, i64 232
  %6 = load ptr, ptr %5, align 8
  tail call void @_ZN14CSpaceCounters10update_allEv(ptr noundef nonnull align 8 dereferenceable(48) %6) #8
  %7 = getelementptr inbounds i8, ptr %0, i64 224
  %8 = load ptr, ptr %7, align 8
  %9 = load ptr, ptr %8, align 8
  %10 = load ptr, ptr %9, align 8
  tail call void %10(ptr noundef nonnull align 8 dereferenceable(32) %8) #8
  br label %11

11:                                               ; preds = %4, %1
  ret void
}